target datalayout = "e-m:e-p270:32:32-p271:32:32-p272:64:64-i64:64-i128:128-f80:128-n8:16:32:64-S128"
target triple = "x86_64-pc-linux-gnu"

%"class.clang::SourceLocation" = type { i32 }
%"class.clang::SourceRange" = type { %"class.clang::SourceLocation", %"class.clang::SourceLocation" }
%"class.clang::AttributeCommonInfo" = type { ptr, ptr, %"class.clang::SourceRange", %"class.clang::SourceLocation", i32 }
%"class.clang::InheritableAttr.base" = type { %"class.clang::Attr.base" }
%"class.clang::Attr.base" = type <{ %"class.clang::AttributeCommonInfo", i16, i8 }>
%"class.clang::OMPAllocateDeclAttr" = type { %"class.clang::InheritableAttr.base", i32, ptr, ptr }

; Function Attrs: mustprogress nounwind uwtable
define linkonce_odr hidden noundef ptr @_ZNK5clang19OMPAllocateDeclAttr12getAlignmentEv(ptr noundef nonnull align 8 dereferenceable(56) %0) #0 comdat align 2 {
  %2 = alloca ptr, align 8
  store ptr %0, ptr %2, align 8
  %3 = load ptr, ptr %2, align 8
  %4 = getelementptr inbounds nuw %"class.clang::OMPAllocateDeclAttr", ptr %3, i32 0, i32 3
  %5 = load ptr, ptr %4, align 8
  ret ptr %5
}

; Function Attrs: mustprogress nounwind uwtable
define linkonce_odr hidden noundef ptr @_ZNK5clang19OMPAllocateDeclAttr12getAllocatorEv(ptr noundef nonnull align 8 dereferenceable(56) %0) #0 comdat align 2 {
  %2 = alloca ptr, align 8
  store ptr %0, ptr %2, align 8
  %3 = load ptr, ptr %2, align 8
  %4 = getelementptr inbounds nuw %"class.clang::OMPAllocateDeclAttr", ptr %3, i32 0, i32 2
  %5 = load ptr, ptr %4, align 8
  ret ptr %5
}

; Function Attrs: mustprogress nounwind uwtable
define internal noundef zeroext i1 @_ZN5clang19RecursiveASTVisitorIN12_GLOBAL__N_118PropertiesRewriter13PlusOneAssignEE24VisitOMPAllocateDeclAttrEPNS_19OMPAllocateDeclAttrE(ptr noundef nonnull align 1 dereferenceable(1) %0, ptr noundef %1) #0 align 2 {
  %3 = alloca ptr, align 8
  %4 = alloca ptr, align 8
  store ptr %0, ptr %3, align 8
  store ptr %1, ptr %4, align 8
  ret i1 true
}

; Function Attrs: mustprogress nounwind uwtable
define internal noundef zeroext i1 @_ZN5clang19RecursiveASTVisitorIN12_GLOBAL__N_118PropertiesRewriter13PlusOneAssignEE9VisitAttrEPNS_4AttrE(ptr noundef nonnull align 1 dereferenceable(1) %0, ptr noundef %1) #0 align 2 {
  %3 = alloca ptr, align 8
  %4 = alloca ptr, align 8
  store ptr %0, ptr %3, align 8
  store ptr %1, ptr %4, align 8
  ret i1 true
}

; Function Attrs: mustprogress nounwind uwtable
define internal noundef nonnull align 8 dereferenceable(8) ptr @_ZN5clang19RecursiveASTVisitorIN12_GLOBAL__N_118PropertiesRewriter13PlusOneAssignEE10getDerivedEv(ptr noundef nonnull align 1 dereferenceable(1) %0) #0 align 2 {
  %2 = alloca ptr, align 8
  store ptr %0, ptr %2, align 8
  %3 = load ptr, ptr %2, align 8
  ret ptr %3
}

; Function Attrs: mustprogress nounwind uwtable
define internal noundef zeroext i1 @_ZN5clang19RecursiveASTVisitorIN12_GLOBAL__N_118PropertiesRewriter13PlusOneAssignEE27TraverseOMPAllocateDeclAttrEPNS_19OMPAllocateDeclAttrE(ptr noundef nonnull align 1 dereferenceable(1) %0, ptr noundef %1) #0 align 2 {
  %3 = alloca i1, align 1
  %4 = alloca ptr, align 8
  %5 = alloca ptr, align 8
  store ptr %0, ptr %4, align 8
  store ptr %1, ptr %5, align 8
  %6 = load ptr, ptr %4, align 8
  %7 = call noundef nonnull align 8 dereferenceable(8) ptr @_ZN5clang19RecursiveASTVisitorIN12_GLOBAL__N_118PropertiesRewriter13PlusOneAssignEE10getDerivedEv(ptr noundef nonnull align 1 dereferenceable(1) %6)
  %8 = load ptr, ptr %5, align 8
  %9 = call noundef zeroext i1 @_ZN5clang19RecursiveASTVisitorIN12_GLOBAL__N_118PropertiesRewriter13PlusOneAssignEE9VisitAttrEPNS_4AttrE(ptr noundef nonnull align 1 dereferenceable(1) %7, ptr noundef %8)
  br i1 %9, label %11, label %10

10:                                               ; preds = %2
  store i1 false, ptr %3, align 1
  br label %29

11:                                               ; preds = %2
  %12 = call noundef nonnull align 8 dereferenceable(8) ptr @_ZN5clang19RecursiveASTVisitorIN12_GLOBAL__N_118PropertiesRewriter13PlusOneAssignEE10getDerivedEv(ptr noundef nonnull align 1 dereferenceable(1) %6)
  %13 = load ptr, ptr %5, align 8
  %14 = call noundef zeroext i1 @_ZN5clang19RecursiveASTVisitorIN12_GLOBAL__N_118PropertiesRewriter13PlusOneAssignEE24VisitOMPAllocateDeclAttrEPNS_19OMPAllocateDeclAttrE(ptr noundef nonnull align 1 dereferenceable(1) %12, ptr noundef %13)
  br i1 %14, label %16, label %15

15:                                               ; preds = %11
  store i1 false, ptr %3, align 1
  br label %29

16:                                               ; preds = %11
  %17 = call noundef nonnull align 8 dereferenceable(8) ptr @_ZN5clang19RecursiveASTVisitorIN12_GLOBAL__N_118PropertiesRewriter13PlusOneAssignEE10getDerivedEv(ptr noundef nonnull align 1 dereferenceable(1) %6)
  %18 = load ptr, ptr %5, align 8
  %19 = call noundef ptr @_ZNK5clang19OMPAllocateDeclAttr12getAllocatorEv(ptr noundef nonnull align 8 dereferenceable(56) %18)
  %20 = call noundef zeroext i1 @_ZN5clang19RecursiveASTVisitorIN12_GLOBAL__N_118PropertiesRewriter13PlusOneAssignEE12TraverseStmtEPNS_4StmtEPN4llvm15SmallVectorImplINS7_14PointerIntPairIS6_Lj1EbNS7_21PointerLikeTypeTraitsIS6_EENS7_18PointerIntPairInfoIS6_Lj1ESB_EEEEEE(ptr noundef nonnull align 1 dereferenceable(1) %17, ptr noundef %19, ptr noundef null)
  br i1 %20, label %22, label %21

21:                                               ; preds = %16
  store i1 false, ptr %3, align 1
  br label %29

22:                                               ; preds = %16
  %23 = call noundef nonnull align 8 dereferenceable(8) ptr @_ZN5clang19RecursiveASTVisitorIN12_GLOBAL__N_118PropertiesRewriter13PlusOneAssignEE10getDerivedEv(ptr noundef nonnull align 1 dereferenceable(1) %6)
  %24 = load ptr, ptr %5, align 8
  %25 = call noundef ptr @_ZNK5clang19OMPAllocateDeclAttr12getAlignmentEv(ptr noundef nonnull align 8 dereferenceable(56) %24)
  %26 = call noundef zeroext i1 @_ZN5clang19RecursiveASTVisitorIN12_GLOBAL__N_118PropertiesRewriter13PlusOneAssignEE12TraverseStmtEPNS_4StmtEPN4llvm15SmallVectorImplINS7_14PointerIntPairIS6_Lj1EbNS7_21PointerLikeTypeTraitsIS6_EENS7_18PointerIntPairInfoIS6_Lj1ESB_EEEEEE(ptr noundef nonnull align 1 dereferenceable(1) %23, ptr noundef %25, ptr noundef null)
  br i1 %26, label %28, label %27

27:                                               ; preds = %22
  store i1 false, ptr %3, align 1
  br label %29

28:                                               ; preds = %22
  store i1 true, ptr %3, align 1
  br label %29

29:                                               ; preds = %28, %27, %21, %15, %10
  %30 = load i1, ptr %3, align 1
  ret i1 %30
}